target datalayout = "e-m:e-p270:32:32-p271:32:32-p272:64:64-i64:64-i128:128-f80:128-n8:16:32:64-S128"
target triple = "x86_64-pc-linux-gnu"

@fddi_padding = internal global i8 0, align 1
@llc_cap_handle = internal global ptr null, align 8

; Function Attrs: null_pointer_is_valid sspstrong uwtable
define internal zeroext i1 @capture_fddi(ptr noundef %0, i32 noundef %1, i32 noundef %2, ptr noundef %3, ptr noundef %4) #0 {
  %6 = alloca i1, align 1
  %7 = alloca ptr, align 8
  %8 = alloca i32, align 4
  %9 = alloca i32, align 4
  %10 = alloca ptr, align 8
  %11 = alloca ptr, align 8
  %12 = alloca i32, align 4
  %13 = alloca i32, align 4
  store ptr %0, ptr %7, align 8
  store i32 %1, ptr %8, align 4
  store i32 %2, ptr %9, align 4
  store ptr %3, ptr %10, align 8
  store ptr %4, ptr %11, align 8
  call void @llvm.lifetime.start.p0(i64 4, ptr %12) #6
  %14 = load i8, ptr @fddi_padding, align 1, !range !6, !noundef !7
  %15 = trunc i8 %14 to i1
  %16 = select i1 %15, i32 3, i32 0
  %17 = add i32 13, %16
  %18 = add i32 0, %17
  %19 = icmp ugt i32 %18, 0
  br i1 %19, label %20, label %28

20:                                               ; preds = %5
  %21 = load i8, ptr @fddi_padding, align 1, !range !6, !noundef !7
  %22 = trunc i8 %21 to i1
  %23 = select i1 %22, i32 3, i32 0
  %24 = add i32 13, %23
  %25 = add i32 0, %24
  %26 = load i32, ptr %9, align 4
  %27 = icmp ule i32 %25, %26
  br i1 %27, label %29, label %28

28:                                               ; preds = %20, %5
  store i1 false, ptr %6, align 1
  store i32 1, ptr %13, align 4
  br label %53

29:                                               ; preds = %20
  %30 = load i8, ptr @fddi_padding, align 1, !range !6, !noundef !7
  %31 = trunc i8 %30 to i1
  %32 = select i1 %31, i32 3, i32 0
  %33 = add i32 %32, 13
  store i32 %33, ptr %8, align 4
  %34 = load ptr, ptr %7, align 8
  %35 = load i8, ptr @fddi_padding, align 1, !range !6, !noundef !7
  %36 = trunc i8 %35 to i1
  %37 = select i1 %36, i32 3, i32 0
  %38 = add i32 0, %37
  %39 = sext i32 %38 to i64
  %40 = getelementptr i8, ptr %34, i64 %39
  %41 = load i8, ptr %40, align 1
  %42 = zext i8 %41 to i32
  store i32 %42, ptr %12, align 4
  %43 = load i32, ptr %12, align 4
  switch i32 %43, label %52 [
    i32 80, label %44
    i32 81, label %44
    i32 82, label %44
    i32 83, label %44
    i32 84, label %44
    i32 85, label %44
    i32 86, label %44
    i32 87, label %44
    i32 88, label %44
    i32 89, label %44
    i32 90, label %44
    i32 91, label %44
    i32 92, label %44
    i32 93, label %44
    i32 94, label %44
    i32 95, label %44
  ]

44:                                               ; preds = %29, %29, %29, %29, %29, %29, %29, %29, %29, %29, %29, %29, %29, %29, %29, %29
  %45 = load ptr, ptr @llc_cap_handle, align 8
  %46 = load ptr, ptr %7, align 8
  %47 = load i32, ptr %8, align 4
  %48 = load i32, ptr %9, align 4
  %49 = load ptr, ptr %10, align 8
  %50 = load ptr, ptr %11, align 8
  %51 = call zeroext i1 @call_capture_dissector(ptr noundef %45, ptr noundef %46, i32 noundef %47, i32 noundef %48, ptr noundef %49, ptr noundef %50)
  store i1 %51, ptr %6, align 1
  store i32 1, ptr %13, align 4
  br label %53

52:                                               ; preds = %29
  store i1 false, ptr %6, align 1
  store i32 1, ptr %13, align 4
  br label %53

53:                                               ; preds = %52, %44, %28
  call void @llvm.lifetime.end.p0(i64 4, ptr %12) #6
  %54 = load i1, ptr %6, align 1
  ret i1 %54
}