; Function Attrs: null_pointer_is_valid sspstrong uwtable
define internal zeroext i1 @capture_fddi(ptr noundef %0, i32 %1, i32 noundef %2, ptr noundef %3, ptr noundef %4) #0 {
  %6 = load i8, ptr @fddi_padding, align 1, !range !6, !noundef !7
  %7 = trunc nuw i8 %6 to i1
  %8 = select i1 %7, i32 3, i32 0
  %9 = add nuw nsw i32 %8, 13
  %.not = icmp ugt i32 %9, %2
  br i1 %.not, label %18, label %10

10:                                               ; preds = %5
  %11 = zext nneg i32 %8 to i64
  %12 = getelementptr i8, ptr %0, i64 %11
  %13 = load i8, ptr %12, align 1
  %14 = and i8 %13, -16
  %switch = icmp eq i8 %14, 80
  br i1 %switch, label %15, label %18

15:                                               ; preds = %10
  %16 = load ptr, ptr @llc_cap_handle, align 8
  %17 = tail call zeroext i1 @call_capture_dissector(ptr noundef %16, ptr noundef %0, i32 noundef %9, i32 noundef %2, ptr noundef %3, ptr noundef %4)
  br label %18

18:                                               ; preds = %10, %5, %15
  %.0 = phi i1 [ %17, %15 ], [ false, %5 ], [ false, %10 ]
  ret i1 %.0
}